target datalayout = "e-m:e-p270:32:32-p271:32:32-p272:64:64-i64:64-i128:128-f80:128-n8:16:32:64-S128"
target triple = "x86_64-unknown-linux-gnu"

%struct.VhostUserGPU = type { %struct.VirtIOGPUBase, ptr, i32, %struct.CharBackend, [16 x %struct.QemuDmaBuf], i8 }
%struct.VirtIOGPUBase = type { %struct.VirtIODevice, ptr, %struct.virtio_gpu_base_conf, %struct.virtio_gpu_config, ptr, i32, i32, %struct.MemoryRegion, [16 x %struct.virtio_gpu_scanout], i32, [16 x %struct.virtio_gpu_requested_state] }
%struct.VirtIODevice = type { %struct.DeviceState, ptr, i8, i8, i16, i64, i64, i64, i64, ptr, i16, i32, i32, ptr, %struct.MemoryListener, i16, i8, i8, i8, i8, i8, i8, i8, i8, i8, ptr, ptr, i8, i8, ptr, ptr, %union.anon.1, %struct.EventNotifier, i8 }
%struct.DeviceState = type { %struct.Object, ptr, ptr, i8, i8, i64, ptr, i32, i8, ptr, %struct.NamedGPIOListHead, %struct.NamedClockListHead, %struct.BusStateHead, i32, i32, i32, %struct.ResettableState, ptr, %struct.MemReentrancyGuard }
%struct.Object = type { ptr, ptr, ptr, i32, ptr }
%struct.NamedGPIOListHead = type { ptr }
%struct.NamedClockListHead = type { ptr }
%struct.BusStateHead = type { ptr }
%struct.ResettableState = type { i32, i8, i8 }
%struct.MemReentrancyGuard = type { i8 }
%struct.MemoryListener = type { ptr, ptr, ptr, ptr, ptr, ptr, ptr, ptr, ptr, ptr, ptr, ptr, ptr, ptr, ptr, ptr, ptr, i32, ptr, ptr, %union.anon, %union.anon.0 }
%union.anon = type { %struct.QTailQLink }
%struct.QTailQLink = type { ptr, ptr }
%union.anon.0 = type { %struct.QTailQLink }
%union.anon.1 = type { %struct.QTailQLink }
%struct.EventNotifier = type { i32, i32, i8 }
%struct.virtio_gpu_base_conf = type { i32, i32, i32, i32, i64 }
%struct.virtio_gpu_config = type { i32, i32, i32, i32 }
%struct.MemoryRegion = type { %struct.Object, i8, i8, i8, i8, i8, i8, i8, i8, i8, i8, ptr, ptr, ptr, ptr, ptr, ptr, i32, i128, i64, ptr, i64, i8, i8, i8, i8, i8, ptr, i64, i32, %union.anon.2, %union.anon.3, %union.anon.4, ptr, i32, ptr, ptr, i8 }
%union.anon.2 = type { %struct.QTailQLink }
%union.anon.3 = type { %struct.QTailQLink }
%union.anon.4 = type { %struct.QTailQLink }
%struct.virtio_gpu_scanout = type { ptr, ptr, i32, i32, i32, i32, i32, i32, %struct.virtio_gpu_update_cursor, ptr }
%struct.virtio_gpu_update_cursor = type { %struct.virtio_gpu_ctrl_hdr, %struct.virtio_gpu_cursor_pos, i32, i32, i32, i32 }
%struct.virtio_gpu_ctrl_hdr = type { i32, i32, i64, i32, i8, [3 x i8] }
%struct.virtio_gpu_cursor_pos = type { i32, i32, i32, i32 }
%struct.virtio_gpu_requested_state = type { i16, i16, i32, i32, i32, i32, i32 }
%struct.CharBackend = type { ptr, ptr, ptr, ptr, ptr, ptr, i32, i32 }
%struct.QemuDmaBuf = type { i32, i32, i32, i32, i32, i64, i32, i32, i32, i32, i32, i8, ptr, i32, i8, i8 }
%struct.VhostUserBackend = type { %struct.Object, ptr, %struct.CharBackend, %struct.VhostUserState, %struct.vhost_dev, ptr, i8, i8 }
%struct.VhostUserState = type { ptr, ptr, i32, i8 }
%struct.vhost_dev = type { ptr, %struct.MemoryListener, %struct.MemoryListener, ptr, i32, ptr, i32, ptr, ptr, i32, i32, i32, i32, i64, i64, i64, i64, i64, i64, i8, i8, i64, ptr, ptr, ptr, ptr, %struct.anon, %struct.anon.7, %struct.IOMMUNotifier, ptr }
%struct.anon = type { ptr, ptr }
%struct.anon.7 = type { ptr }
%struct.IOMMUNotifier = type { ptr, i32, i64, i64, i32, %struct.anon.8 }
%struct.anon.8 = type { ptr, ptr }

@.str = private unnamed_addr constant [15 x i8] c"vhost-user-gpu\00", align 1
@.str.3 = private unnamed_addr constant [8 x i8] c"chardev\00", align 1
@.str.4 = private unnamed_addr constant [109 x i8] c"/home/dtcxzyw/WorkSpace/Projects/compilers/llvm-opt-benchmark/bench/qemu/qemu/include/hw/virtio/virtio-gpu.h\00", align 1
@__func__.VHOST_USER_GPU = private unnamed_addr constant [15 x i8] c"VHOST_USER_GPU\00", align 1
@.str.21 = private unnamed_addr constant [36 x i8] c"../qemu/hw/display/vhost-user-gpu.c\00", align 1
@__func__.vhost_user_gpu_do_set_socket = private unnamed_addr constant [29 x i8] c"vhost_user_gpu_do_set_socket\00", align 1
@.str.22 = private unnamed_addr constant [20 x i8] c"socketpair() failed\00", align 1
@.str.23 = private unnamed_addr constant [15 x i8] c"chardev-socket\00", align 1
@.str.24 = private unnamed_addr constant [30 x i8] c"Failed to make socket chardev\00", align 1
@.str.25 = private unnamed_addr constant [36 x i8] c"Failed to set vhost-user-gpu socket\00", align 1
@.str.26 = private unnamed_addr constant [101 x i8] c"/home/dtcxzyw/WorkSpace/Projects/compilers/llvm-opt-benchmark/bench/qemu/qemu/include/chardev/char.h\00", align 1
@__func__.CHARDEV = private unnamed_addr constant [8 x i8] c"CHARDEV\00", align 1

; Function Attrs: nounwind sspstrong uwtable
define internal ptr @CHARDEV(ptr noundef %obj) #0 {
entry:
  %obj.addr = alloca ptr, align 8
  store ptr %obj, ptr %obj.addr, align 8
  %0 = load ptr, ptr %obj.addr, align 8
  %call = call ptr @object_dynamic_cast_assert(ptr noundef %0, ptr noundef @.str.3, ptr noundef @.str.26, i32 noundef 231, ptr noundef @__func__.CHARDEV)
  ret ptr %call
}

; Function Attrs: nounwind sspstrong uwtable
define internal void @vhost_user_gpu_update_blocked(ptr noundef %g, i1 noundef zeroext %blocked) #0 {
entry:
  %g.addr = alloca ptr, align 8
  %blocked.addr = alloca i8, align 1
  store ptr %g, ptr %g.addr, align 8
  %frombool = zext i1 %blocked to i8
  store i8 %frombool, ptr %blocked.addr, align 1
  %0 = load ptr, ptr %g.addr, align 8
  %vhost_gpu_fd = getelementptr inbounds %struct.VhostUserGPU, ptr %0, i32 0, i32 2
  %1 = load i32, ptr %vhost_gpu_fd, align 8
  %2 = load i8, ptr %blocked.addr, align 1
  %tobool = trunc i8 %2 to i1
  %cond = select i1 %tobool, ptr null, ptr @vhost_user_gpu_chr_read
  %3 = load ptr, ptr %g.addr, align 8
  call void @qemu_set_fd_handler(i32 noundef %1, ptr noundef %cond, ptr noundef null, ptr noundef %3)
  ret void
}

; Function Attrs: nounwind sspstrong uwtable
define internal zeroext i1 @vhost_user_gpu_do_set_socket(ptr noundef %g, ptr noundef %errp) #0 {
entry:
  %retval = alloca i1, align 1
  %g.addr = alloca ptr, align 8
  %errp.addr = alloca ptr, align 8
  %chr = alloca ptr, align 8
  %sv = alloca [2 x i32], align 4
  store ptr %g, ptr %g.addr, align 8
  store ptr %errp, ptr %errp.addr, align 8
  %arraydecay = getelementptr inbounds [2 x i32], ptr %sv, i64 0, i64 0
  %call = call i32 @qemu_socketpair(i32 noundef 1, i32 noundef 1, i32 noundef 0, ptr noundef %arraydecay)
  %cmp = icmp eq i32 %call, -1
  br i1 %cmp, label %if.then, label %if.end

if.then:                                          ; preds = %entry
  %0 = load ptr, ptr %errp.addr, align 8
  %call1 = call ptr @__errno_location() #7
  %1 = load i32, ptr %call1, align 4
  call void (ptr, ptr, i32, ptr, i32, ptr, ...) @error_setg_errno_internal(ptr noundef %0, ptr noundef @.str.21, i32 noundef 430, ptr noundef @__func__.vhost_user_gpu_do_set_socket, i32 noundef %1, ptr noundef @.str.22)
  store i1 false, ptr %retval, align 1
  br label %return

if.end:                                           ; preds = %entry
  %call2 = call ptr @object_new(ptr noundef @.str.23)
  %call3 = call ptr @CHARDEV(ptr noundef %call2)
  store ptr %call3, ptr %chr, align 8
  %2 = load ptr, ptr %chr, align 8
  %tobool = icmp ne ptr %2, null
  br i1 %tobool, label %lor.lhs.false, label %if.then6

lor.lhs.false:                                    ; preds = %if.end
  %3 = load ptr, ptr %chr, align 8
  %arrayidx = getelementptr [2 x i32], ptr %sv, i64 0, i64 0
  %4 = load i32, ptr %arrayidx, align 4
  %call4 = call i32 @qemu_chr_add_client(ptr noundef %3, i32 noundef %4)
  %cmp5 = icmp eq i32 %call4, -1
  br i1 %cmp5, label %if.then6, label %if.end7

if.then6:                                         ; preds = %lor.lhs.false, %if.end
  %5 = load ptr, ptr %errp.addr, align 8
  call void (ptr, ptr, i32, ptr, ptr, ...) @error_setg_internal(ptr noundef %5, ptr noundef @.str.21, i32 noundef 436, ptr noundef @__func__.vhost_user_gpu_do_set_socket, ptr noundef @.str.24)
  br label %err

if.end7:                                          ; preds = %lor.lhs.false
  %6 = load ptr, ptr %g.addr, align 8
  %vhost_chr = getelementptr inbounds %struct.VhostUserGPU, ptr %6, i32 0, i32 3
  %7 = load ptr, ptr %chr, align 8
  %8 = load ptr, ptr %errp.addr, align 8
  %call8 = call zeroext i1 @qemu_chr_fe_init(ptr noundef %vhost_chr, ptr noundef %7, ptr noundef %8)
  br i1 %call8, label %if.end10, label %if.then9

if.then9:                                         ; preds = %if.end7
  br label %err

if.end10:                                         ; preds = %if.end7
  %9 = load ptr, ptr %g.addr, align 8
  %vhost = getelementptr inbounds %struct.VhostUserGPU, ptr %9, i32 0, i32 1
  %10 = load ptr, ptr %vhost, align 16
  %dev = getelementptr inbounds %struct.VhostUserBackend, ptr %10, i32 0, i32 4
  %arrayidx11 = getelementptr [2 x i32], ptr %sv, i64 0, i64 1
  %11 = load i32, ptr %arrayidx11, align 4
  %call12 = call i32 @vhost_user_gpu_set_socket(ptr noundef %dev, i32 noundef %11)
  %cmp13 = icmp slt i32 %call12, 0
  br i1 %cmp13, label %if.then14, label %if.end16

if.then14:                                        ; preds = %if.end10
  %12 = load ptr, ptr %errp.addr, align 8
  call void (ptr, ptr, i32, ptr, ptr, ...) @error_setg_internal(ptr noundef %12, ptr noundef @.str.21, i32 noundef 443, ptr noundef @__func__.vhost_user_gpu_do_set_socket, ptr noundef @.str.25)
  %13 = load ptr, ptr %g.addr, align 8
  %vhost_chr15 = getelementptr inbounds %struct.VhostUserGPU, ptr %13, i32 0, i32 3
  call void @qemu_chr_fe_deinit(ptr noundef %vhost_chr15, i1 noundef zeroext false)
  br label %err

if.end16:                                         ; preds = %if.end10
  %arrayidx17 = getelementptr [2 x i32], ptr %sv, i64 0, i64 0
  %14 = load i32, ptr %arrayidx17, align 4
  %15 = load ptr, ptr %g.addr, align 8
  %vhost_gpu_fd = getelementptr inbounds %struct.VhostUserGPU, ptr %15, i32 0, i32 2
  store i32 %14, ptr %vhost_gpu_fd, align 8
  %16 = load ptr, ptr %g.addr, align 8
  call void @vhost_user_gpu_update_blocked(ptr noundef %16, i1 noundef zeroext false)
  %arrayidx18 = getelementptr [2 x i32], ptr %sv, i64 0, i64 1
  %17 = load i32, ptr %arrayidx18, align 4
  %call19 = call i32 @close(i32 noundef %17)
  store i1 true, ptr %retval, align 1
  br label %return

err:                                              ; preds = %if.then14, %if.then9, %if.then6
  %arrayidx20 = getelementptr [2 x i32], ptr %sv, i64 0, i64 0
  %18 = load i32, ptr %arrayidx20, align 4
  %call21 = call i32 @close(i32 noundef %18)
  %arrayidx22 = getelementptr [2 x i32], ptr %sv, i64 0, i64 1
  %19 = load i32, ptr %arrayidx22, align 4
  %call23 = call i32 @close(i32 noundef %19)
  %20 = load ptr, ptr %chr, align 8
  %tobool24 = icmp ne ptr %20, null
  br i1 %tobool24, label %if.then25, label %if.end26

if.then25:                                        ; preds = %err
  %21 = load ptr, ptr %chr, align 8
  call void @object_unref(ptr noundef %21)
  br label %if.end26

if.end26:                                         ; preds = %if.then25, %err
  store i1 false, ptr %retval, align 1
  br label %return

return:                                           ; preds = %if.end26, %if.end16, %if.then
  %22 = load i1, ptr %retval, align 1
  ret i1 %22
}

; Function Attrs: nounwind sspstrong uwtable
define internal ptr @VHOST_USER_GPU(ptr noundef %obj) #0 {
entry:
  %obj.addr = alloca ptr, align 8
  store ptr %obj, ptr %obj.addr, align 8
  %0 = load ptr, ptr %obj.addr, align 8
  %call = call ptr @object_dynamic_cast_assert(ptr noundef %0, ptr noundef @.str, ptr noundef @.str.4, i32 noundef 39, ptr noundef @__func__.VHOST_USER_GPU)
  ret ptr %call
}

; Function Attrs: nounwind sspstrong uwtable
define internal void @vhost_user_gpu_set_status(ptr noundef %vdev, i8 noundef zeroext %val) #0 {
entry:
  %vdev.addr = alloca ptr, align 8
  %val.addr = alloca i8, align 1
  %g = alloca ptr, align 8
  %err = alloca ptr, align 8
  store ptr %vdev, ptr %vdev.addr, align 8
  store i8 %val, ptr %val.addr, align 1
  %0 = load ptr, ptr %vdev.addr, align 8
  %call = call ptr @VHOST_USER_GPU(ptr noundef %0)
  store ptr %call, ptr %g, align 8
  store ptr null, ptr %err, align 8
  %1 = load i8, ptr %val.addr, align 1
  %conv = zext i8 %1 to i32
  %and = and i32 %conv, 4
  %tobool = icmp ne i32 %and, 0
  br i1 %tobool, label %land.lhs.true, label %if.else

land.lhs.true:                                    ; preds = %entry
  %2 = load ptr, ptr %vdev.addr, align 8
  %vm_running = getelementptr inbounds %struct.VirtIODevice, ptr %2, i32 0, i32 16
  %3 = load i8, ptr %vm_running, align 2
  %tobool1 = trunc i8 %3 to i1
  br i1 %tobool1, label %if.then, label %if.else

if.then:                                          ; preds = %land.lhs.true
  %4 = load ptr, ptr %g, align 8
  %call3 = call zeroext i1 @vhost_user_gpu_do_set_socket(ptr noundef %4, ptr noundef %err)
  br i1 %call3, label %if.end, label %if.then4

if.then4:                                         ; preds = %if.then
  %5 = load ptr, ptr %err, align 8
  call void @error_report_err(ptr noundef %5)
  br label %if.end10

if.end:                                           ; preds = %if.then
  %6 = load ptr, ptr %g, align 8
  %vhost = getelementptr inbounds %struct.VhostUserGPU, ptr %6, i32 0, i32 1
  %7 = load ptr, ptr %vhost, align 16
  call void @vhost_user_backend_start(ptr noundef %7)
  br label %if.end10

if.else:                                          ; preds = %land.lhs.true, %entry
  %8 = load ptr, ptr %g, align 8
  %vhost_gpu_fd = getelementptr inbounds %struct.VhostUserGPU, ptr %8, i32 0, i32 2
  %9 = load i32, ptr %vhost_gpu_fd, align 8
  %cmp = icmp ne i32 %9, -1
  br i1 %cmp, label %if.then6, label %if.end8

if.then6:                                         ; preds = %if.else
  %10 = load ptr, ptr %g, align 8
  call void @vhost_user_gpu_update_blocked(ptr noundef %10, i1 noundef zeroext true)
  %11 = load ptr, ptr %g, align 8
  %vhost_chr = getelementptr inbounds %struct.VhostUserGPU, ptr %11, i32 0, i32 3
  call void @qemu_chr_fe_deinit(ptr noundef %vhost_chr, i1 noundef zeroext true)
  %12 = load ptr, ptr %g, align 8
  %vhost_gpu_fd7 = getelementptr inbounds %struct.VhostUserGPU, ptr %12, i32 0, i32 2
  store i32 -1, ptr %vhost_gpu_fd7, align 8
  br label %if.end8

if.end8:                                          ; preds = %if.then6, %if.else
  %13 = load ptr, ptr %g, align 8
  %vhost9 = getelementptr inbounds %struct.VhostUserGPU, ptr %13, i32 0, i32 1
  %14 = load ptr, ptr %vhost9, align 16
  call void @vhost_user_backend_stop(ptr noundef %14)
  br label %if.end10

if.end10:                                         ; preds = %if.end8, %if.end, %if.then4
  ret void
}