; Function Attrs: nounwind sspstrong uwtable
define internal void @vhost_user_gpu_set_status(ptr noundef %vdev, i8 noundef zeroext %val) #0 {
entry:
  %sv.i = alloca [2 x i32], align 4
  %err = alloca ptr, align 8
  %call.i = tail call ptr @object_dynamic_cast_assert(ptr noundef %vdev, ptr noundef nonnull @.str, ptr noundef nonnull @.str.4, i32 noundef 39, ptr noundef nonnull @__func__.VHOST_USER_GPU) #7
  store ptr null, ptr %err, align 8
  %0 = and i8 %val, 4
  %tobool.not = icmp eq i8 %0, 0
  br i1 %tobool.not, label %if.else, label %land.lhs.true

land.lhs.true:                                    ; preds = %entry
  %vm_running = getelementptr inbounds nuw i8, ptr %vdev, i64 434
  %1 = load i8, ptr %vm_running, align 2
  %tobool1 = trunc i8 %1 to i1
  br i1 %tobool1, label %if.then, label %if.else

if.then:                                          ; preds = %land.lhs.true
  call void @llvm.lifetime.start.p0(i64 8, ptr nonnull %sv.i)
  %call.i8 = call i32 @qemu_socketpair(i32 noundef 1, i32 noundef 1, i32 noundef 0, ptr noundef nonnull %sv.i) #7
  %cmp.i = icmp eq i32 %call.i8, -1
  br i1 %cmp.i, label %if.then.i, label %if.end.i

if.then.i:                                        ; preds = %if.then
  %call1.i = tail call ptr @__errno_location() #8
  %2 = load i32, ptr %call1.i, align 4
  call void (ptr, ptr, i32, ptr, i32, ptr, ...) @error_setg_errno_internal(ptr noundef nonnull %err, ptr noundef nonnull @.str.21, i32 noundef 430, ptr noundef nonnull @__func__.vhost_user_gpu_do_set_socket, i32 noundef %2, ptr noundef nonnull @.str.22) #7
  br label %if.then4

if.end.i:                                         ; preds = %if.then
  %call2.i = call ptr @object_new(ptr noundef nonnull @.str.23) #7
  %call.i.i = call ptr @object_dynamic_cast_assert(ptr noundef %call2.i, ptr noundef nonnull @.str.3, ptr noundef nonnull @.str.26, i32 noundef 231, ptr noundef nonnull @__func__.CHARDEV) #7
  %tobool.not.i = icmp eq ptr %call.i.i, null
  br i1 %tobool.not.i, label %if.then6.i, label %lor.lhs.false.i

lor.lhs.false.i:                                  ; preds = %if.end.i
  %3 = load i32, ptr %sv.i, align 4
  %call4.i = call i32 @qemu_chr_add_client(ptr noundef nonnull %call.i.i, i32 noundef %3) #7
  %cmp5.i = icmp eq i32 %call4.i, -1
  br i1 %cmp5.i, label %if.then6.i, label %if.end7.i

if.then6.i:                                       ; preds = %lor.lhs.false.i, %if.end.i
  call void (ptr, ptr, i32, ptr, ptr, ...) @error_setg_internal(ptr noundef nonnull %err, ptr noundef nonnull @.str.21, i32 noundef 436, ptr noundef nonnull @__func__.vhost_user_gpu_do_set_socket, ptr noundef nonnull @.str.24) #7
  br label %err.i

if.end7.i:                                        ; preds = %lor.lhs.false.i
  %vhost_chr.i = getelementptr inbounds nuw i8, ptr %call.i, i64 2944
  %call8.i = call zeroext i1 @qemu_chr_fe_init(ptr noundef nonnull %vhost_chr.i, ptr noundef nonnull %call.i.i, ptr noundef nonnull %err) #7
  br i1 %call8.i, label %if.end10.i, label %err.i

if.end10.i:                                       ; preds = %if.end7.i
  %vhost.i = getelementptr inbounds nuw i8, ptr %call.i, i64 2928
  %4 = load ptr, ptr %vhost.i, align 16
  %dev.i = getelementptr inbounds nuw i8, ptr %4, i64 128
  %arrayidx11.i = getelementptr inbounds nuw i8, ptr %sv.i, i64 4
  %5 = load i32, ptr %arrayidx11.i, align 4
  %call12.i = call i32 @vhost_user_gpu_set_socket(ptr noundef nonnull %dev.i, i32 noundef %5) #7
  %cmp13.i = icmp slt i32 %call12.i, 0
  br i1 %cmp13.i, label %if.then14.i, label %if.end

if.then14.i:                                      ; preds = %if.end10.i
  call void (ptr, ptr, i32, ptr, ptr, ...) @error_setg_internal(ptr noundef nonnull %err, ptr noundef nonnull @.str.21, i32 noundef 443, ptr noundef nonnull @__func__.vhost_user_gpu_do_set_socket, ptr noundef nonnull @.str.25) #7
  call void @qemu_chr_fe_deinit(ptr noundef nonnull %vhost_chr.i, i1 noundef zeroext false) #7
  br label %err.i

err.i:                                            ; preds = %if.then14.i, %if.end7.i, %if.then6.i
  %6 = load i32, ptr %sv.i, align 4
  %call21.i = call i32 @close(i32 noundef %6) #7
  %arrayidx22.i = getelementptr inbounds nuw i8, ptr %sv.i, i64 4
  %7 = load i32, ptr %arrayidx22.i, align 4
  %call23.i = call i32 @close(i32 noundef %7) #7
  br i1 %tobool.not.i, label %if.then4, label %if.then25.i

if.then25.i:                                      ; preds = %err.i
  call void @object_unref(ptr noundef nonnull %call.i.i) #7
  br label %if.then4

if.then4:                                         ; preds = %if.then.i, %if.then25.i, %err.i
  call void @llvm.lifetime.end.p0(i64 8, ptr nonnull %sv.i)
  %8 = load ptr, ptr %err, align 8
  call void @error_report_err(ptr noundef %8) #7
  br label %if.end10

if.end:                                           ; preds = %if.end10.i
  %9 = load i32, ptr %sv.i, align 4
  %vhost_gpu_fd.i = getelementptr inbounds nuw i8, ptr %call.i, i64 2936
  store i32 %9, ptr %vhost_gpu_fd.i, align 8
  call void @qemu_set_fd_handler(i32 noundef %9, ptr noundef nonnull @vhost_user_gpu_chr_read, ptr noundef null, ptr noundef nonnull %call.i) #7
  %10 = load i32, ptr %arrayidx11.i, align 4
  %call19.i = call i32 @close(i32 noundef %10) #7
  call void @llvm.lifetime.end.p0(i64 8, ptr nonnull %sv.i)
  %11 = load ptr, ptr %vhost.i, align 16
  call void @vhost_user_backend_start(ptr noundef %11) #7
  br label %if.end10

if.else:                                          ; preds = %land.lhs.true, %entry
  %vhost_gpu_fd = getelementptr inbounds nuw i8, ptr %call.i, i64 2936
  %12 = load i32, ptr %vhost_gpu_fd, align 8
  %cmp.not = icmp eq i32 %12, -1
  br i1 %cmp.not, label %if.end8, label %if.then6

if.then6:                                         ; preds = %if.else
  tail call void @qemu_set_fd_handler(i32 noundef %12, ptr noundef null, ptr noundef null, ptr noundef nonnull %call.i) #7
  %vhost_chr = getelementptr inbounds nuw i8, ptr %call.i, i64 2944
  tail call void @qemu_chr_fe_deinit(ptr noundef nonnull %vhost_chr, i1 noundef zeroext true) #7
  store i32 -1, ptr %vhost_gpu_fd, align 8
  br label %if.end8

if.end8:                                          ; preds = %if.then6, %if.else
  %vhost9 = getelementptr inbounds nuw i8, ptr %call.i, i64 2928
  %13 = load ptr, ptr %vhost9, align 16
  tail call void @vhost_user_backend_stop(ptr noundef %13) #7
  br label %if.end10

if.end10:                                         ; preds = %if.end8, %if.end, %if.then4
  ret void
}